; Function Attrs: mustprogress uwtable
define hidden void @_ZN4lean7pp_exprB5cxx11ERKNS_16elab_environmentERKNS_7optionsERKNS_4exprE(ptr dead_on_unwind noalias writable sret(%"class.std::__cxx11::basic_string") align 8 %0, ptr noundef nonnull readonly align 8 captures(none) dereferenceable(8) %1, ptr noundef nonnull readonly align 8 captures(none) dereferenceable(8) %2, ptr noundef nonnull readonly align 8 captures(none) dereferenceable(8) %3) local_unnamed_addr #0 personality ptr @__gxx_personality_v0 {
  %5 = alloca %"class.lean::local_ctx", align 8
  call void @llvm.lifetime.start.p0(i64 8, ptr nonnull %5) #20
  call void @_ZN4lean9local_ctxC1Ev(ptr noundef nonnull align 8 dereferenceable(8) %5)
  invoke void @_ZN4lean7pp_exprB5cxx11ERKNS_16elab_environmentERKNS_7optionsERKNS_9local_ctxERKNS_4exprE(ptr dead_on_unwind writable sret(%"class.std::__cxx11::basic_string") align 8 %0, ptr noundef nonnull align 8 dereferenceable(8) %1, ptr noundef nonnull align 8 dereferenceable(8) %2, ptr noundef nonnull align 8 dereferenceable(8) %5, ptr noundef nonnull align 8 dereferenceable(8) %3)
          to label %6 unwind label %20

6:                                                ; preds = %4
  %7 = load ptr, ptr %5, align 8, !tbaa !3
  %8 = ptrtoint ptr %7 to i64
  %9 = and i64 %8, 1
  %.not.i.i = icmp eq i64 %9, 0
  br i1 %.not.i.i, label %10, label %_ZN4lean10object_refD2Ev.exit

10:                                               ; preds = %6
  %11 = load i32, ptr %7, align 4, !tbaa !8
  %12 = icmp sgt i32 %11, 1
  br i1 %12, label %13, label %15, !prof !11

13:                                               ; preds = %10
  %14 = add nsw i32 %11, -1
  store i32 %14, ptr %7, align 4, !tbaa !8
  br label %_ZN4lean10object_refD2Ev.exit

15:                                               ; preds = %10
  %.not.i.i.i = icmp eq i32 %11, 0
  br i1 %.not.i.i.i, label %_ZN4lean10object_refD2Ev.exit, label %16

16:                                               ; preds = %15
  invoke void @lean_dec_ref_cold(ptr noundef nonnull %7)
          to label %_ZN4lean10object_refD2Ev.exit unwind label %17

17:                                               ; preds = %16
  %18 = landingpad { ptr, i32 }
          catch ptr null
  %19 = extractvalue { ptr, i32 } %18, 0
  call void @__clang_call_terminate(ptr %19) #21
  unreachable

_ZN4lean10object_refD2Ev.exit:                    ; preds = %6, %13, %15, %16
  call void @llvm.lifetime.end.p0(i64 8, ptr nonnull %5) #20
  ret void

20:                                               ; preds = %4
  %21 = landingpad { ptr, i32 }
          cleanup
  call void @_ZN4lean10object_refD2Ev(ptr noundef nonnull align 8 dereferenceable(8) %5) #20
  call void @llvm.lifetime.end.p0(i64 8, ptr nonnull %5) #20
  resume { ptr, i32 } %21
}